target datalayout = "e-m:e-p270:32:32-p271:32:32-p272:64:64-i64:64-i128:128-f80:128-n8:16:32:64-S128"
target triple = "x86_64-pc-linux-gnu"

%"class.std::__cxx11::basic_string" = type { %"struct.std::__cxx11::basic_string<char>::_Alloc_hider", i64, %union.anon }
%"struct.std::__cxx11::basic_string<char>::_Alloc_hider" = type { ptr }
%union.anon = type { i64, [8 x i8] }
%"class.google::protobuf::MessageLite" = type { ptr, %"class.google::protobuf::internal::InternalMetadata" }
%"class.google::protobuf::internal::InternalMetadata" = type { ptr }
%"class.google::protobuf::internal::RepeatedPtrFieldBase" = type { ptr, i32, i32, ptr }
%"class.google::protobuf::internal::CachedSize" = type { %"struct.std::atomic" }
%"struct.std::atomic" = type { %"struct.std::__atomic_base" }
%"struct.std::__atomic_base" = type { i32 }
%"class.i18n::phonenumbers::PhoneMetadata" = type <{ %"class.google::protobuf::MessageLite", %"class.google::protobuf::internal::HasBits", %"class.google::protobuf::internal::CachedSize", %"class.google::protobuf::RepeatedPtrField.22", %"class.google::protobuf::RepeatedPtrField.22", %"struct.google::protobuf::internal::ArenaStringPtr", %"struct.google::protobuf::internal::ArenaStringPtr", %"struct.google::protobuf::internal::ArenaStringPtr", %"struct.google::protobuf::internal::ArenaStringPtr", %"struct.google::protobuf::internal::ArenaStringPtr", %"struct.google::protobuf::internal::ArenaStringPtr", %"struct.google::protobuf::internal::ArenaStringPtr", %"struct.google::protobuf::internal::ArenaStringPtr", ptr, ptr, ptr, ptr, ptr, ptr, ptr, ptr, ptr, ptr, ptr, ptr, ptr, ptr, ptr, ptr, ptr, i32, i8, i8, i8, i8 }>
%"class.google::protobuf::internal::HasBits" = type { [1 x i32] }
%"class.google::protobuf::RepeatedPtrField.22" = type { %"class.google::protobuf::internal::RepeatedPtrFieldBase" }
%"struct.google::protobuf::internal::ArenaStringPtr" = type { ptr }
%"class.absl::debian2::container_internal::raw_hash_set<absl::debian2::container_internal::FlatHashMapPolicy<std::__cxx11::basic_string<char>, i18n::phonenumbers::PhoneMetadata>, absl::debian2::container_internal::StringHash, absl::debian2::container_internal::StringHashEq::Eq, std::allocator<std::pair<const std::__cxx11::basic_string<char>, i18n::phonenumbers::PhoneMetadata>>>::iterator" = type { ptr, %union.anon.26 }
%union.anon.26 = type { ptr }
%"class.i18n::phonenumbers::ShortNumberInfo" = type { ptr, %"class.boost::scoped_ptr", %"class.boost::scoped_ptr.0", %"class.boost::scoped_ptr.1" }
%"class.boost::scoped_ptr" = type { ptr }
%"class.boost::scoped_ptr.0" = type { ptr }
%"class.boost::scoped_ptr.1" = type { ptr }
%"struct.std::pair.33" = type { %"class.std::__cxx11::basic_string", %"class.i18n::phonenumbers::PhoneMetadata" }
%class.anon.65 = type { i8 }
%class.anon.67 = type { i8 }

; Function Attrs: mustprogress nounwind uwtable
define linkonce_odr dso_local noundef nonnull align 8 dereferenceable(312) ptr @_ZN4absl7debian218container_internal17FlatHashMapPolicyINSt7__cxx1112basic_stringIcSt11char_traitsIcESaIcEEEN4i18n12phonenumbers13PhoneMetadataEE7elementEPNS1_13map_slot_typeIS8_SB_EE(ptr noundef %0) #7 comdat align 2 {
  %2 = alloca ptr, align 8
  store ptr %0, ptr %2, align 8, !tbaa !229
  %3 = load ptr, ptr %2, align 8, !tbaa !229
  ret ptr %3
}

; Function Attrs: inlinehint mustprogress nounwind uwtable
define linkonce_odr dso_local void @_ZZN4absl7debian218container_internal12AssertIsFullEPaENKUlvE_clEv(ptr noundef nonnull align 1 dereferenceable(1) %0) #10 comdat align 2 {
  %2 = alloca ptr, align 8
  store ptr %0, ptr %2, align 8, !tbaa !54
  br label %3

3:                                                ; preds = %1
  call void @llvm.trap()
  unreachable

4:                                                ; No predecessors!
  ret void
}

; Function Attrs: inlinehint mustprogress nounwind uwtable
define linkonce_odr dso_local void @_ZZN4absl7debian218container_internal13AssertIsValidEPaENKUlvE_clEv(ptr noundef nonnull align 1 dereferenceable(1) %0) #10 comdat align 2 {
  %2 = alloca ptr, align 8
  store ptr %0, ptr %2, align 8, !tbaa !54
  br label %3

3:                                                ; preds = %1
  call void @llvm.trap()
  unreachable

4:                                                ; No predecessors!
  ret void
}

; Function Attrs: inlinehint mustprogress nounwind uwtable
define linkonce_odr dso_local noundef zeroext i1 @_ZN4absl7debian218container_internal6IsFullEa(i8 noundef signext %0) #10 comdat {
  %2 = alloca i8, align 1
  store i8 %0, ptr %2, align 1, !tbaa !160
  %3 = load i8, ptr %2, align 1, !tbaa !160
  %4 = sext i8 %3 to i32
  %5 = icmp sge i32 %4, 0
  ret i1 %5
}

; Function Attrs: mustprogress uwtable
define linkonce_odr dso_local noundef nonnull align 8 dereferenceable(312) ptr @_ZN4absl7debian218container_internal18hash_policy_traitsINS1_17FlatHashMapPolicyINSt7__cxx1112basic_stringIcSt11char_traitsIcESaIcEEEN4i18n12phonenumbers13PhoneMetadataEEEvE7elementISD_EEDTclsrT_7elementfp_EEPNS1_13map_slot_typeIS9_SC_EE(ptr noundef %0) #4 comdat align 2 {
  %2 = alloca ptr, align 8
  store ptr %0, ptr %2, align 8, !tbaa !229
  %3 = load ptr, ptr %2, align 8, !tbaa !229
  %4 = call noundef nonnull align 8 dereferenceable(312) ptr @_ZN4absl7debian218container_internal17FlatHashMapPolicyINSt7__cxx1112basic_stringIcSt11char_traitsIcESaIcEEEN4i18n12phonenumbers13PhoneMetadataEE7elementEPNS1_13map_slot_typeIS8_SB_EE(ptr noundef %3)
  ret ptr %4
}

; Function Attrs: inlinehint mustprogress uwtable
define linkonce_odr dso_local void @_ZN4absl7debian218container_internal12AssertIsFullEPa(ptr noundef %0) #6 comdat {
  %2 = alloca ptr, align 8
  %3 = alloca %class.anon.67, align 1
  store ptr %0, ptr %2, align 8, !tbaa !17
  %4 = load ptr, ptr %2, align 8, !tbaa !17
  %5 = icmp ne ptr %4, null
  call void @llvm.lifetime.start.p0(i64 1, ptr %3) #3
  br i1 %5, label %6, label %11

6:                                                ; preds = %1
  %7 = load ptr, ptr %2, align 8, !tbaa !17
  %8 = load i8, ptr %7, align 1, !tbaa !160
  %9 = call noundef zeroext i1 @_ZN4absl7debian218container_internal6IsFullEa(i8 noundef signext %8)
  br i1 %9, label %10, label %11

10:                                               ; preds = %6
  br label %11

11:                                               ; preds = %10, %6, %1
  %12 = phi i1 [ false, %6 ], [ false, %1 ], [ true, %10 ]
  %13 = zext i1 %12 to i64
  %14 = call i64 @llvm.expect.i64(i64 %13, i64 1)
  %15 = icmp ne i64 %14, 0
  br i1 %15, label %16, label %17

16:                                               ; preds = %11
  br label %18

17:                                               ; preds = %11
  call void @_ZZN4absl7debian218container_internal12AssertIsFullEPaENKUlvE_clEv(ptr noundef nonnull align 1 dereferenceable(1) %3)
  br label %18

18:                                               ; preds = %17, %16
  call void @llvm.lifetime.end.p0(i64 1, ptr %3) #3
  ret void
}

; Function Attrs: inlinehint mustprogress uwtable
define linkonce_odr dso_local void @_ZN4absl7debian218container_internal13AssertIsValidEPa(ptr noundef %0) #6 comdat {
  %2 = alloca ptr, align 8
  %3 = alloca %class.anon.65, align 1
  store ptr %0, ptr %2, align 8, !tbaa !17
  %4 = load ptr, ptr %2, align 8, !tbaa !17
  %5 = icmp eq ptr %4, null
  call void @llvm.lifetime.start.p0(i64 1, ptr %3) #3
  br i1 %5, label %10, label %6

6:                                                ; preds = %1
  %7 = load ptr, ptr %2, align 8, !tbaa !17
  %8 = load i8, ptr %7, align 1, !tbaa !160
  %9 = call noundef zeroext i1 @_ZN4absl7debian218container_internal6IsFullEa(i8 noundef signext %8)
  br i1 %9, label %10, label %11

10:                                               ; preds = %6, %1
  br label %11

11:                                               ; preds = %10, %6
  %12 = phi i1 [ false, %6 ], [ true, %10 ]
  %13 = zext i1 %12 to i64
  %14 = call i64 @llvm.expect.i64(i64 %13, i64 1)
  %15 = icmp ne i64 %14, 0
  br i1 %15, label %16, label %17

16:                                               ; preds = %11
  br label %18

17:                                               ; preds = %11
  call void @_ZZN4absl7debian218container_internal13AssertIsValidEPaENKUlvE_clEv(ptr noundef nonnull align 1 dereferenceable(1) %3)
  br label %18

18:                                               ; preds = %17, %16
  call void @llvm.lifetime.end.p0(i64 1, ptr %3) #3
  ret void
}

; Function Attrs: mustprogress uwtable
define linkonce_odr dso_local noundef nonnull align 8 dereferenceable(312) ptr @_ZNK4absl7debian218container_internal12raw_hash_setINS1_17FlatHashMapPolicyINSt7__cxx1112basic_stringIcSt11char_traitsIcESaIcEEEN4i18n12phonenumbers13PhoneMetadataEEENS1_10StringHashENS1_12StringHashEq2EqESaISt4pairIKS9_SC_EEE8iteratordeEv(ptr noundef nonnull align 8 dereferenceable(16) %0) #4 comdat align 2 {
  %2 = alloca ptr, align 8
  store ptr %0, ptr %2, align 8, !tbaa !61
  %3 = load ptr, ptr %2, align 8
  %4 = getelementptr inbounds nuw %"class.absl::debian2::container_internal::raw_hash_set<absl::debian2::container_internal::FlatHashMapPolicy<std::__cxx11::basic_string<char>, i18n::phonenumbers::PhoneMetadata>, absl::debian2::container_internal::StringHash, absl::debian2::container_internal::StringHashEq::Eq, std::allocator<std::pair<const std::__cxx11::basic_string<char>, i18n::phonenumbers::PhoneMetadata>>>::iterator", ptr %3, i32 0, i32 0
  %5 = load ptr, ptr %4, align 8, !tbaa !374
  call void @_ZN4absl7debian218container_internal12AssertIsFullEPa(ptr noundef %5)
  %6 = getelementptr inbounds nuw %"class.absl::debian2::container_internal::raw_hash_set<absl::debian2::container_internal::FlatHashMapPolicy<std::__cxx11::basic_string<char>, i18n::phonenumbers::PhoneMetadata>, absl::debian2::container_internal::StringHash, absl::debian2::container_internal::StringHashEq::Eq, std::allocator<std::pair<const std::__cxx11::basic_string<char>, i18n::phonenumbers::PhoneMetadata>>>::iterator", ptr %3, i32 0, i32 1
  %7 = load ptr, ptr %6, align 8, !tbaa !160
  %8 = call noundef nonnull align 8 dereferenceable(312) ptr @_ZN4absl7debian218container_internal18hash_policy_traitsINS1_17FlatHashMapPolicyINSt7__cxx1112basic_stringIcSt11char_traitsIcESaIcEEEN4i18n12phonenumbers13PhoneMetadataEEEvE7elementISD_EEDTclsrT_7elementfp_EEPNS1_13map_slot_typeIS9_SC_EE(ptr noundef %7)
  ret ptr %8
}

; Function Attrs: mustprogress uwtable
define linkonce_odr dso_local noundef zeroext i1 @_ZN4absl7debian218container_internaleqERKNS1_12raw_hash_setINS1_17FlatHashMapPolicyINSt7__cxx1112basic_stringIcSt11char_traitsIcESaIcEEEN4i18n12phonenumbers13PhoneMetadataEEENS1_10StringHashENS1_12StringHashEq2EqESaISt4pairIKS9_SC_EEE8iteratorESO_(ptr noundef nonnull align 8 dereferenceable(16) %0, ptr noundef nonnull align 8 dereferenceable(16) %1) #4 comdat {
  %3 = alloca ptr, align 8
  %4 = alloca ptr, align 8
  store ptr %0, ptr %3, align 8, !tbaa !61
  store ptr %1, ptr %4, align 8, !tbaa !61
  %5 = load ptr, ptr %3, align 8, !tbaa !61
  %6 = getelementptr inbounds nuw %"class.absl::debian2::container_internal::raw_hash_set<absl::debian2::container_internal::FlatHashMapPolicy<std::__cxx11::basic_string<char>, i18n::phonenumbers::PhoneMetadata>, absl::debian2::container_internal::StringHash, absl::debian2::container_internal::StringHashEq::Eq, std::allocator<std::pair<const std::__cxx11::basic_string<char>, i18n::phonenumbers::PhoneMetadata>>>::iterator", ptr %5, i32 0, i32 0
  %7 = load ptr, ptr %6, align 8, !tbaa !374
  call void @_ZN4absl7debian218container_internal13AssertIsValidEPa(ptr noundef %7)
  %8 = load ptr, ptr %4, align 8, !tbaa !61
  %9 = getelementptr inbounds nuw %"class.absl::debian2::container_internal::raw_hash_set<absl::debian2::container_internal::FlatHashMapPolicy<std::__cxx11::basic_string<char>, i18n::phonenumbers::PhoneMetadata>, absl::debian2::container_internal::StringHash, absl::debian2::container_internal::StringHashEq::Eq, std::allocator<std::pair<const std::__cxx11::basic_string<char>, i18n::phonenumbers::PhoneMetadata>>>::iterator", ptr %8, i32 0, i32 0
  %10 = load ptr, ptr %9, align 8, !tbaa !374
  call void @_ZN4absl7debian218container_internal13AssertIsValidEPa(ptr noundef %10)
  %11 = load ptr, ptr %3, align 8, !tbaa !61
  %12 = getelementptr inbounds nuw %"class.absl::debian2::container_internal::raw_hash_set<absl::debian2::container_internal::FlatHashMapPolicy<std::__cxx11::basic_string<char>, i18n::phonenumbers::PhoneMetadata>, absl::debian2::container_internal::StringHash, absl::debian2::container_internal::StringHashEq::Eq, std::allocator<std::pair<const std::__cxx11::basic_string<char>, i18n::phonenumbers::PhoneMetadata>>>::iterator", ptr %11, i32 0, i32 0
  %13 = load ptr, ptr %12, align 8, !tbaa !374
  %14 = load ptr, ptr %4, align 8, !tbaa !61
  %15 = getelementptr inbounds nuw %"class.absl::debian2::container_internal::raw_hash_set<absl::debian2::container_internal::FlatHashMapPolicy<std::__cxx11::basic_string<char>, i18n::phonenumbers::PhoneMetadata>, absl::debian2::container_internal::StringHash, absl::debian2::container_internal::StringHashEq::Eq, std::allocator<std::pair<const std::__cxx11::basic_string<char>, i18n::phonenumbers::PhoneMetadata>>>::iterator", ptr %14, i32 0, i32 0
  %16 = load ptr, ptr %15, align 8, !tbaa !374
  %17 = icmp eq ptr %13, %16
  ret i1 %17
}

; Function Attrs: mustprogress nounwind uwtable
define linkonce_odr dso_local void @_ZN4absl7debian218container_internal12raw_hash_setINS1_17FlatHashMapPolicyINSt7__cxx1112basic_stringIcSt11char_traitsIcESaIcEEEN4i18n12phonenumbers13PhoneMetadataEEENS1_10StringHashENS1_12StringHashEq2EqESaISt4pairIKS9_SC_EEE8iteratorC2Ev(ptr noundef nonnull align 8 dereferenceable(16) %0) unnamed_addr #7 comdat align 2 {
  %2 = alloca ptr, align 8
  store ptr %0, ptr %2, align 8, !tbaa !61
  %3 = load ptr, ptr %2, align 8
  %4 = getelementptr inbounds nuw %"class.absl::debian2::container_internal::raw_hash_set<absl::debian2::container_internal::FlatHashMapPolicy<std::__cxx11::basic_string<char>, i18n::phonenumbers::PhoneMetadata>, absl::debian2::container_internal::StringHash, absl::debian2::container_internal::StringHashEq::Eq, std::allocator<std::pair<const std::__cxx11::basic_string<char>, i18n::phonenumbers::PhoneMetadata>>>::iterator", ptr %3, i32 0, i32 0
  store ptr null, ptr %4, align 8, !tbaa !374
  ret void
}

; Function Attrs: mustprogress uwtable
define linkonce_odr dso_local noundef ptr @_ZNK4absl7debian218container_internal12raw_hash_setINS1_17FlatHashMapPolicyINSt7__cxx1112basic_stringIcSt11char_traitsIcESaIcEEEN4i18n12phonenumbers13PhoneMetadataEEENS1_10StringHashENS1_12StringHashEq2EqESaISt4pairIKS9_SC_EEE8iteratorptEv(ptr noundef nonnull align 8 dereferenceable(16) %0) #4 comdat align 2 {
  %2 = alloca ptr, align 8
  store ptr %0, ptr %2, align 8, !tbaa !61
  %3 = load ptr, ptr %2, align 8
  %4 = call noundef nonnull align 8 dereferenceable(312) ptr @_ZNK4absl7debian218container_internal12raw_hash_setINS1_17FlatHashMapPolicyINSt7__cxx1112basic_stringIcSt11char_traitsIcESaIcEEEN4i18n12phonenumbers13PhoneMetadataEEENS1_10StringHashENS1_12StringHashEq2EqESaISt4pairIKS9_SC_EEE8iteratordeEv(ptr noundef nonnull align 8 dereferenceable(16) %3)
  ret ptr %4
}

; Function Attrs: mustprogress uwtable
define linkonce_odr dso_local noundef zeroext i1 @_ZN4absl7debian218container_internalneERKNS1_12raw_hash_setINS1_17FlatHashMapPolicyINSt7__cxx1112basic_stringIcSt11char_traitsIcESaIcEEEN4i18n12phonenumbers13PhoneMetadataEEENS1_10StringHashENS1_12StringHashEq2EqESaISt4pairIKS9_SC_EEE8iteratorESO_(ptr noundef nonnull align 8 dereferenceable(16) %0, ptr noundef nonnull align 8 dereferenceable(16) %1) #4 comdat {
  %3 = alloca ptr, align 8
  %4 = alloca ptr, align 8
  store ptr %0, ptr %3, align 8, !tbaa !61
  store ptr %1, ptr %4, align 8, !tbaa !61
  %5 = load ptr, ptr %3, align 8, !tbaa !61
  %6 = load ptr, ptr %4, align 8, !tbaa !61
  %7 = call noundef zeroext i1 @_ZN4absl7debian218container_internaleqERKNS1_12raw_hash_setINS1_17FlatHashMapPolicyINSt7__cxx1112basic_stringIcSt11char_traitsIcESaIcEEEN4i18n12phonenumbers13PhoneMetadataEEENS1_10StringHashENS1_12StringHashEq2EqESaISt4pairIKS9_SC_EEE8iteratorESO_(ptr noundef nonnull align 8 dereferenceable(16) %5, ptr noundef nonnull align 8 dereferenceable(16) %6)
  %8 = xor i1 %7, true
  ret i1 %8
}

; Function Attrs: mustprogress uwtable
define linkonce_odr dso_local { ptr, ptr } @_ZN4absl7debian218container_internal12raw_hash_setINS1_17FlatHashMapPolicyINSt7__cxx1112basic_stringIcSt11char_traitsIcESaIcEEEN4i18n12phonenumbers13PhoneMetadataEEENS1_10StringHashENS1_12StringHashEq2EqESaISt4pairIKS9_SC_EEE3endEv(ptr noundef nonnull align 8 dereferenceable(40) %0) #4 comdat align 2 {
  %2 = alloca %"class.absl::debian2::container_internal::raw_hash_set<absl::debian2::container_internal::FlatHashMapPolicy<std::__cxx11::basic_string<char>, i18n::phonenumbers::PhoneMetadata>, absl::debian2::container_internal::StringHash, absl::debian2::container_internal::StringHashEq::Eq, std::allocator<std::pair<const std::__cxx11::basic_string<char>, i18n::phonenumbers::PhoneMetadata>>>::iterator", align 8
  %3 = alloca ptr, align 8
  store ptr %0, ptr %3, align 8, !tbaa !55
  call void @_ZN4absl7debian218container_internal12raw_hash_setINS1_17FlatHashMapPolicyINSt7__cxx1112basic_stringIcSt11char_traitsIcESaIcEEEN4i18n12phonenumbers13PhoneMetadataEEENS1_10StringHashENS1_12StringHashEq2EqESaISt4pairIKS9_SC_EEE8iteratorC2Ev(ptr noundef nonnull align 8 dereferenceable(16) %2)
  %4 = load { ptr, ptr }, ptr %2, align 8
  ret { ptr, ptr } %4
}

; Function Attrs: mustprogress nounwind uwtable
define linkonce_odr dso_local noundef ptr @_ZNK5boost10scoped_ptrIN4absl7debian213flat_hash_mapINSt7__cxx1112basic_stringIcSt11char_traitsIcESaIcEEEN4i18n12phonenumbers13PhoneMetadataENS2_18container_internal10StringHashENSD_12StringHashEq2EqESaISt4pairIKS9_SC_EEEEEptEv(ptr noundef nonnull align 8 dereferenceable(8) %0) #7 comdat align 2 {
  %2 = alloca ptr, align 8
  store ptr %0, ptr %2, align 8, !tbaa !39
  %3 = load ptr, ptr %2, align 8
  %4 = getelementptr inbounds nuw %"class.boost::scoped_ptr.0", ptr %3, i32 0, i32 0
  %5 = load ptr, ptr %4, align 8, !tbaa !41
  ret ptr %5
}

; Function Attrs: mustprogress uwtable
define dso_local noundef ptr @_ZNK4i18n12phonenumbers15ShortNumberInfo20GetMetadataForRegionERKNSt7__cxx1112basic_stringIcSt11char_traitsIcESaIcEEE(ptr noundef nonnull align 8 dereferenceable(32) %0, ptr noundef nonnull align 8 dereferenceable(32) %1) #4 align 2 {
  %3 = alloca ptr, align 8
  %4 = alloca ptr, align 8
  %5 = alloca ptr, align 8
  %6 = alloca %"class.absl::debian2::container_internal::raw_hash_set<absl::debian2::container_internal::FlatHashMapPolicy<std::__cxx11::basic_string<char>, i18n::phonenumbers::PhoneMetadata>, absl::debian2::container_internal::StringHash, absl::debian2::container_internal::StringHashEq::Eq, std::allocator<std::pair<const std::__cxx11::basic_string<char>, i18n::phonenumbers::PhoneMetadata>>>::iterator", align 8
  %7 = alloca %"class.absl::debian2::container_internal::raw_hash_set<absl::debian2::container_internal::FlatHashMapPolicy<std::__cxx11::basic_string<char>, i18n::phonenumbers::PhoneMetadata>, absl::debian2::container_internal::StringHash, absl::debian2::container_internal::StringHashEq::Eq, std::allocator<std::pair<const std::__cxx11::basic_string<char>, i18n::phonenumbers::PhoneMetadata>>>::iterator", align 8
  %8 = alloca i32, align 4
  store ptr %0, ptr %4, align 8, !tbaa !21
  store ptr %1, ptr %5, align 8, !tbaa !29
  %9 = load ptr, ptr %4, align 8
  call void @llvm.lifetime.start.p0(i64 16, ptr %6) #3
  %10 = getelementptr inbounds nuw %"class.i18n::phonenumbers::ShortNumberInfo", ptr %9, i32 0, i32 2
  %11 = call noundef ptr @_ZNK5boost10scoped_ptrIN4absl7debian213flat_hash_mapINSt7__cxx1112basic_stringIcSt11char_traitsIcESaIcEEEN4i18n12phonenumbers13PhoneMetadataENS2_18container_internal10StringHashENSD_12StringHashEq2EqESaISt4pairIKS9_SC_EEEEEptEv(ptr noundef nonnull align 8 dereferenceable(8) %10) #3
  %12 = load ptr, ptr %5, align 8, !tbaa !29
  %13 = call { ptr, ptr } @_ZN4absl7debian218container_internal12raw_hash_setINS1_17FlatHashMapPolicyINSt7__cxx1112basic_stringIcSt11char_traitsIcESaIcEEEN4i18n12phonenumbers13PhoneMetadataEEENS1_10StringHashENS1_12StringHashEq2EqESaISt4pairIKS9_SC_EEE4findIS9_EENSL_8iteratorERKT_(ptr noundef nonnull align 8 dereferenceable(40) %11, ptr noundef nonnull align 8 dereferenceable(32) %12)
  %14 = getelementptr inbounds nuw { ptr, ptr }, ptr %6, i32 0, i32 0
  %15 = extractvalue { ptr, ptr } %13, 0
  store ptr %15, ptr %14, align 8
  %16 = getelementptr inbounds nuw { ptr, ptr }, ptr %6, i32 0, i32 1
  %17 = extractvalue { ptr, ptr } %13, 1
  store ptr %17, ptr %16, align 8
  call void @llvm.lifetime.start.p0(i64 16, ptr %7) #3
  %18 = getelementptr inbounds nuw %"class.i18n::phonenumbers::ShortNumberInfo", ptr %9, i32 0, i32 2
  %19 = call noundef ptr @_ZNK5boost10scoped_ptrIN4absl7debian213flat_hash_mapINSt7__cxx1112basic_stringIcSt11char_traitsIcESaIcEEEN4i18n12phonenumbers13PhoneMetadataENS2_18container_internal10StringHashENSD_12StringHashEq2EqESaISt4pairIKS9_SC_EEEEEptEv(ptr noundef nonnull align 8 dereferenceable(8) %18) #3
  %20 = call { ptr, ptr } @_ZN4absl7debian218container_internal12raw_hash_setINS1_17FlatHashMapPolicyINSt7__cxx1112basic_stringIcSt11char_traitsIcESaIcEEEN4i18n12phonenumbers13PhoneMetadataEEENS1_10StringHashENS1_12StringHashEq2EqESaISt4pairIKS9_SC_EEE3endEv(ptr noundef nonnull align 8 dereferenceable(40) %19)
  %21 = getelementptr inbounds nuw { ptr, ptr }, ptr %7, i32 0, i32 0
  %22 = extractvalue { ptr, ptr } %20, 0
  store ptr %22, ptr %21, align 8
  %23 = getelementptr inbounds nuw { ptr, ptr }, ptr %7, i32 0, i32 1
  %24 = extractvalue { ptr, ptr } %20, 1
  store ptr %24, ptr %23, align 8
  %25 = call noundef zeroext i1 @_ZN4absl7debian218container_internalneERKNS1_12raw_hash_setINS1_17FlatHashMapPolicyINSt7__cxx1112basic_stringIcSt11char_traitsIcESaIcEEEN4i18n12phonenumbers13PhoneMetadataEEENS1_10StringHashENS1_12StringHashEq2EqESaISt4pairIKS9_SC_EEE8iteratorESO_(ptr noundef nonnull align 8 dereferenceable(16) %6, ptr noundef nonnull align 8 dereferenceable(16) %7)
  call void @llvm.lifetime.end.p0(i64 16, ptr %7) #3
  br i1 %25, label %26, label %29

26:                                               ; preds = %2
  %27 = call noundef ptr @_ZNK4absl7debian218container_internal12raw_hash_setINS1_17FlatHashMapPolicyINSt7__cxx1112basic_stringIcSt11char_traitsIcESaIcEEEN4i18n12phonenumbers13PhoneMetadataEEENS1_10StringHashENS1_12StringHashEq2EqESaISt4pairIKS9_SC_EEE8iteratorptEv(ptr noundef nonnull align 8 dereferenceable(16) %6)
  %28 = getelementptr inbounds nuw %"struct.std::pair.33", ptr %27, i32 0, i32 1
  store ptr %28, ptr %3, align 8
  store i32 1, ptr %8, align 4
  br label %30

29:                                               ; preds = %2
  store ptr null, ptr %3, align 8
  store i32 1, ptr %8, align 4
  br label %30

30:                                               ; preds = %29, %26
  call void @llvm.lifetime.end.p0(i64 16, ptr %6) #3
  %31 = load ptr, ptr %3, align 8
  ret ptr %31
}