; Function Attrs: mustprogress uwtable
define dso_local noundef ptr @_ZNK4i18n12phonenumbers15ShortNumberInfo20GetMetadataForRegionERKNSt7__cxx1112basic_stringIcSt11char_traitsIcESaIcEEE(ptr noundef nonnull readonly align 8 captures(none) dereferenceable(32) %0, ptr noundef nonnull align 8 dereferenceable(32) %1) local_unnamed_addr #3 align 2 {
  %3 = getelementptr inbounds nuw i8, ptr %0, i64 16
  %4 = load ptr, ptr %3, align 8, !tbaa !42
  %5 = tail call { ptr, ptr } @_ZN4absl7debian218container_internal12raw_hash_setINS1_17FlatHashMapPolicyINSt7__cxx1112basic_stringIcSt11char_traitsIcESaIcEEEN4i18n12phonenumbers13PhoneMetadataEEENS1_10StringHashENS1_12StringHashEq2EqESaISt4pairIKS9_SC_EEE4findIS9_EENSL_8iteratorERKT_(ptr noundef nonnull align 8 dereferenceable(40) %4, ptr noundef nonnull align 8 dereferenceable(32) %1)
  %6 = extractvalue { ptr, ptr } %5, 0
  %7 = extractvalue { ptr, ptr } %5, 1
  %8 = icmp eq ptr %6, null
  br i1 %8, label %_ZN4absl7debian218container_internalneERKNS1_12raw_hash_setINS1_17FlatHashMapPolicyINSt7__cxx1112basic_stringIcSt11char_traitsIcESaIcEEEN4i18n12phonenumbers13PhoneMetadataEEENS1_10StringHashENS1_12StringHashEq2EqESaISt4pairIKS9_SC_EEE8iteratorESO_.exit, label %9

9:                                                ; preds = %2
  %10 = load i8, ptr %6, align 1, !tbaa !22
  %11 = icmp sgt i8 %10, -1
  br i1 %11, label %_ZNK4absl7debian218container_internal12raw_hash_setINS1_17FlatHashMapPolicyINSt7__cxx1112basic_stringIcSt11char_traitsIcESaIcEEEN4i18n12phonenumbers13PhoneMetadataEEENS1_10StringHashENS1_12StringHashEq2EqESaISt4pairIKS9_SC_EEE8iteratorptEv.exit, label %.critedge.i.i.i, !prof !141

.critedge.i.i.i:                                  ; preds = %9
  tail call void @llvm.trap()
  unreachable

_ZNK4absl7debian218container_internal12raw_hash_setINS1_17FlatHashMapPolicyINSt7__cxx1112basic_stringIcSt11char_traitsIcESaIcEEEN4i18n12phonenumbers13PhoneMetadataEEENS1_10StringHashENS1_12StringHashEq2EqESaISt4pairIKS9_SC_EEE8iteratorptEv.exit: ; preds = %9
  %12 = getelementptr inbounds nuw i8, ptr %7, i64 32
  br label %_ZN4absl7debian218container_internalneERKNS1_12raw_hash_setINS1_17FlatHashMapPolicyINSt7__cxx1112basic_stringIcSt11char_traitsIcESaIcEEEN4i18n12phonenumbers13PhoneMetadataEEENS1_10StringHashENS1_12StringHashEq2EqESaISt4pairIKS9_SC_EEE8iteratorESO_.exit

_ZN4absl7debian218container_internalneERKNS1_12raw_hash_setINS1_17FlatHashMapPolicyINSt7__cxx1112basic_stringIcSt11char_traitsIcESaIcEEEN4i18n12phonenumbers13PhoneMetadataEEENS1_10StringHashENS1_12StringHashEq2EqESaISt4pairIKS9_SC_EEE8iteratorESO_.exit: ; preds = %2, %_ZNK4absl7debian218container_internal12raw_hash_setINS1_17FlatHashMapPolicyINSt7__cxx1112basic_stringIcSt11char_traitsIcESaIcEEEN4i18n12phonenumbers13PhoneMetadataEEENS1_10StringHashENS1_12StringHashEq2EqESaISt4pairIKS9_SC_EEE8iteratorptEv.exit
  %.0 = phi ptr [ %12, %_ZNK4absl7debian218container_internal12raw_hash_setINS1_17FlatHashMapPolicyINSt7__cxx1112basic_stringIcSt11char_traitsIcESaIcEEEN4i18n12phonenumbers13PhoneMetadataEEENS1_10StringHashENS1_12StringHashEq2EqESaISt4pairIKS9_SC_EEE8iteratorptEv.exit ], [ null, %2 ]
  ret ptr %.0
}